target datalayout = "e-m:e-p270:32:32-p271:32:32-p272:64:64-i64:64-i128:128-f80:128-n8:16:32:64-S128"
target triple = "x86_64-pc-linux-gnu"

%"class.std::vector.0" = type { %"struct.std::_Vector_base.1" }
%"struct.std::_Vector_base.1" = type { %"struct.std::_Vector_base<std::vector<int>, std::allocator<std::vector<int>>>::_Vector_impl" }
%"struct.std::_Vector_base<std::vector<int>, std::allocator<std::vector<int>>>::_Vector_impl" = type { %"struct.std::_Vector_base<std::vector<int>, std::allocator<std::vector<int>>>::_Vector_impl_data" }
%"struct.std::_Vector_base<std::vector<int>, std::allocator<std::vector<int>>>::_Vector_impl_data" = type { ptr, ptr, ptr }
%"class.std::vector.6" = type { %"struct.std::_Vector_base.7" }
%"struct.std::_Vector_base.7" = type { %"struct.std::_Vector_base<int, std::allocator<int>>::_Vector_impl" }
%"struct.std::_Vector_base<int, std::allocator<int>>::_Vector_impl" = type { %"struct.std::_Vector_base<int, std::allocator<int>>::_Vector_impl_data" }
%"struct.std::_Vector_base<int, std::allocator<int>>::_Vector_impl_data" = type { ptr, ptr, ptr }
%"class.std::shared_ptr" = type { %"class.std::__shared_ptr" }
%"class.std::__shared_ptr" = type { ptr, %"class.std::__shared_count" }
%"class.std::__shared_count" = type { ptr }
%"class.open_spiel::backgammon::BackgammonState" = type { %"class.open_spiel::State.base", i32, i8, i32, i32, i32, i32, i32, i8, %"class.std::vector.6", %"class.std::vector.6", %"class.std::vector.6", %"class.std::vector.0", %"class.std::vector.29" }
%"class.open_spiel::State.base" = type <{ ptr, %"class.std::shared_ptr", i32, i32, %"class.std::vector.24", i32 }>
%"class.std::vector.24" = type { %"struct.std::_Vector_base.25" }
%"struct.std::_Vector_base.25" = type { %"struct.std::_Vector_base<open_spiel::State::PlayerAction, std::allocator<open_spiel::State::PlayerAction>>::_Vector_impl" }
%"struct.std::_Vector_base<open_spiel::State::PlayerAction, std::allocator<open_spiel::State::PlayerAction>>::_Vector_impl" = type { %"struct.std::_Vector_base<open_spiel::State::PlayerAction, std::allocator<open_spiel::State::PlayerAction>>::_Vector_impl_data" }
%"struct.std::_Vector_base<open_spiel::State::PlayerAction, std::allocator<open_spiel::State::PlayerAction>>::_Vector_impl_data" = type { ptr, ptr, ptr }
%"class.std::vector.29" = type { %"struct.std::_Vector_base.30" }
%"struct.std::_Vector_base.30" = type { %"struct.std::_Vector_base<open_spiel::backgammon::TurnHistoryInfo, std::allocator<open_spiel::backgammon::TurnHistoryInfo>>::_Vector_impl" }
%"struct.std::_Vector_base<open_spiel::backgammon::TurnHistoryInfo, std::allocator<open_spiel::backgammon::TurnHistoryInfo>>::_Vector_impl" = type { %"struct.std::_Vector_base<open_spiel::backgammon::TurnHistoryInfo, std::allocator<open_spiel::backgammon::TurnHistoryInfo>>::_Vector_impl_data" }
%"struct.std::_Vector_base<open_spiel::backgammon::TurnHistoryInfo, std::allocator<open_spiel::backgammon::TurnHistoryInfo>>::_Vector_impl_data" = type { ptr, ptr, ptr }

; Function Attrs: mustprogress nounwind uwtable
define noundef zeroext i1 @_ZNK10open_spiel10backgammon15BackgammonState17UsableDiceOutcomeEi(ptr noundef nonnull align 8 dereferenceable(216) %0, i32 noundef %1) #4 align 2 {
  %3 = alloca ptr, align 8
  %4 = alloca i32, align 4
  store ptr %0, ptr %3, align 8
  store i32 %1, ptr %4, align 4
  %5 = load i32, ptr %4, align 4
  %6 = icmp sge i32 %5, 1
  br i1 %6, label %7, label %10

7:                                                ; preds = %2
  %8 = load i32, ptr %4, align 4
  %9 = icmp sle i32 %8, 6
  br label %10

10:                                               ; preds = %7, %2
  %11 = phi i1 [ false, %2 ], [ %9, %7 ]
  ret i1 %11
}

; Function Attrs: mustprogress nounwind uwtable
define linkonce_odr noundef nonnull align 4 dereferenceable(4) ptr @_ZNKSt6vectorIiSaIiEEixEm(ptr noundef nonnull align 8 dereferenceable(24) %0, i64 noundef %1) #4 comdat align 2 {
  %3 = alloca ptr, align 8
  %4 = alloca i64, align 8
  store ptr %0, ptr %3, align 8
  store i64 %1, ptr %4, align 8
  %5 = load ptr, ptr %3, align 8
  %6 = getelementptr inbounds nuw %"struct.std::_Vector_base.7", ptr %5, i32 0, i32 0
  %7 = getelementptr inbounds nuw %"struct.std::_Vector_base<int, std::allocator<int>>::_Vector_impl_data", ptr %6, i32 0, i32 0
  %8 = load ptr, ptr %7, align 8
  %9 = load i64, ptr %4, align 8
  %10 = getelementptr inbounds i32, ptr %8, i64 %9
  ret ptr %10
}

; Function Attrs: mustprogress uwtable
define noundef i32 @_ZNK10open_spiel10backgammon15BackgammonState24HighestUsableDiceOutcomeEv(ptr noundef nonnull align 8 dereferenceable(216) %0) #5 align 2 {
  %2 = alloca i32, align 4
  %3 = alloca ptr, align 8
  store ptr %0, ptr %3, align 8
  %4 = load ptr, ptr %3, align 8
  %5 = getelementptr inbounds nuw %"class.open_spiel::backgammon::BackgammonState", ptr %4, i32 0, i32 9
  %6 = call noundef nonnull align 4 dereferenceable(4) ptr @_ZNKSt6vectorIiSaIiEEixEm(ptr noundef nonnull align 8 dereferenceable(24) %5, i64 noundef 1) #3
  %7 = load i32, ptr %6, align 4
  %8 = call noundef zeroext i1 @_ZNK10open_spiel10backgammon15BackgammonState17UsableDiceOutcomeEi(ptr noundef nonnull align 8 dereferenceable(216) %4, i32 noundef %7)
  br i1 %8, label %9, label %13

9:                                                ; preds = %1
  %10 = getelementptr inbounds nuw %"class.open_spiel::backgammon::BackgammonState", ptr %4, i32 0, i32 9
  %11 = call noundef nonnull align 4 dereferenceable(4) ptr @_ZNKSt6vectorIiSaIiEEixEm(ptr noundef nonnull align 8 dereferenceable(24) %10, i64 noundef 1) #3
  %12 = load i32, ptr %11, align 4
  store i32 %12, ptr %2, align 4
  br label %23

13:                                               ; preds = %1
  %14 = getelementptr inbounds nuw %"class.open_spiel::backgammon::BackgammonState", ptr %4, i32 0, i32 9
  %15 = call noundef nonnull align 4 dereferenceable(4) ptr @_ZNKSt6vectorIiSaIiEEixEm(ptr noundef nonnull align 8 dereferenceable(24) %14, i64 noundef 0) #3
  %16 = load i32, ptr %15, align 4
  %17 = call noundef zeroext i1 @_ZNK10open_spiel10backgammon15BackgammonState17UsableDiceOutcomeEi(ptr noundef nonnull align 8 dereferenceable(216) %4, i32 noundef %16)
  br i1 %17, label %18, label %22

18:                                               ; preds = %13
  %19 = getelementptr inbounds nuw %"class.open_spiel::backgammon::BackgammonState", ptr %4, i32 0, i32 9
  %20 = call noundef nonnull align 4 dereferenceable(4) ptr @_ZNKSt6vectorIiSaIiEEixEm(ptr noundef nonnull align 8 dereferenceable(24) %19, i64 noundef 0) #3
  %21 = load i32, ptr %20, align 4
  store i32 %21, ptr %2, align 4
  br label %23

22:                                               ; preds = %13
  store i32 -1, ptr %2, align 4
  br label %23

23:                                               ; preds = %22, %18, %9
  %24 = load i32, ptr %2, align 4
  ret i32 %24
}