; Function Attrs: mustprogress nofree norecurse nosync nounwind willreturn memory(read, inaccessiblemem: none) uwtable
define noundef i32 @_ZNK10open_spiel10backgammon15BackgammonState24HighestUsableDiceOutcomeEv(ptr nocapture noundef nonnull readonly align 8 dereferenceable(216) %0) local_unnamed_addr #9 align 2 {
  %2 = getelementptr inbounds nuw i8, ptr %0, i64 96
  %3 = load ptr, ptr %2, align 8
  %4 = getelementptr inbounds i8, ptr %3, i64 4
  %5 = load i32, ptr %4, align 4
  %6 = add i32 %5, -1
  %7 = icmp ult i32 %6, 6
  br i1 %7, label %12, label %8

8:                                                ; preds = %1
  %9 = load i32, ptr %3, align 4
  %10 = add i32 %9, -1
  %11 = icmp ult i32 %10, 6
  %spec.select = select i1 %11, i32 %9, i32 -1
  br label %12

12:                                               ; preds = %8, %1
  %.0 = phi i32 [ %5, %1 ], [ %spec.select, %8 ]
  ret i32 %.0
}